	.text
	.file	"test.cpp"
	.file	0 "/home/tomlord/sys/hw4/build" "../test.cpp" md5 0xd8097c9c770fcf636cff59117506a3aa
	.globl	main                            // -- Begin function main
	.p2align	2
	.type	main,@function
main:                                   // @main
.Lfunc_begin0:
	.loc	0 13 0                          // ../test.cpp:13:0
	.cfi_startproc
// %bb.0:
	sub	sp, sp, #64
	.cfi_def_cfa_offset 64
	stp	x29, x30, [sp, #48]             // 16-byte Folded Spill
	add	x29, sp, #48
	.cfi_def_cfa w29, 16
	.cfi_offset w30, -8
	.cfi_offset w29, -16
	mov	w8, wzr
	str	w8, [sp, #12]                   // 4-byte Folded Spill
	stur	wzr, [x29, #-4]
	stur	w0, [x29, #-8]
	stur	x1, [x29, #-16]
	add	x0, sp, #24
	str	x0, [sp]                        // 8-byte Folded Spill
.Ltmp0:
	.loc	0 14 19 prologue_end            // ../test.cpp:14:19
	str	xzr, [sp, #24]
	bl	_ZN12FileDownloadC2Ev
	ldr	x8, [sp]                        // 8-byte Folded Reload
	.loc	0 15 17                         // ../test.cpp:15:17
	str	x8, [sp, #16]
	.loc	0 16 2                          // ../test.cpp:16:2
	ldr	x0, [sp, #16]
	.loc	0 16 5 is_stmt 0                // ../test.cpp:16:5
	ldr	x8, [x0]
	ldr	x8, [x8]
	blr	x8
	.loc	0 17 2 is_stmt 1                // ../test.cpp:17:2
	ldr	x0, [sp, #16]
	.loc	0 17 5 is_stmt 0                // ../test.cpp:17:5
	ldr	x8, [x0]
	ldr	x8, [x8, #8]
	blr	x8
	ldr	w0, [sp, #12]                   // 4-byte Folded Reload
	.cfi_def_cfa wsp, 64
	.loc	0 18 2 epilogue_begin is_stmt 1 // ../test.cpp:18:2
	ldp	x29, x30, [sp, #48]             // 16-byte Folded Reload
	add	sp, sp, #64
	.cfi_def_cfa_offset 0
	.cfi_restore w30
	.cfi_restore w29
	ret
.Ltmp1:
.Lfunc_end0:
	.size	main, .Lfunc_end0-main
	.cfi_endproc
                                        // -- End function
	.section	.text._ZN12FileDownloadC2Ev,"axG",@progbits,_ZN12FileDownloadC2Ev,comdat
	.weak	_ZN12FileDownloadC2Ev           // -- Begin function _ZN12FileDownloadC2Ev
	.p2align	2
	.type	_ZN12FileDownloadC2Ev,@function
_ZN12FileDownloadC2Ev:                  // @_ZN12FileDownloadC2Ev
.Lfunc_begin1:
	.loc	0 3 0                           // ../test.cpp:3:0
	.cfi_startproc
// %bb.0:
	sub	sp, sp, #16
	.cfi_def_cfa_offset 16
	adrp	x8, _ZTV12FileDownload
	add	x8, x8, :lo12:_ZTV12FileDownload
	add	x8, x8, #16
	str	x0, [sp, #8]
	ldr	x9, [sp, #8]
.Ltmp3:
	.loc	0 3 7 prologue_end              // ../test.cpp:3:7
	str	x8, [x9]
	.loc	0 3 7 epilogue_begin is_stmt 0  // ../test.cpp:3:7
	add	sp, sp, #16
	.cfi_def_cfa_offset 0
	ret
.Ltmp4:
.Lfunc_end1:
	.size	_ZN12FileDownloadC2Ev, .Lfunc_end1-_ZN12FileDownloadC2Ev
	.cfi_endproc
                                        // -- End function
	.section	.text._ZN12FileDownload5checkEv,"axG",@progbits,_ZN12FileDownload5checkEv,comdat
	.weak	_ZN12FileDownload5checkEv       // -- Begin function _ZN12FileDownload5checkEv
	.p2align	2
	.type	_ZN12FileDownload5checkEv,@function
_ZN12FileDownload5checkEv:              // @_ZN12FileDownload5checkEv
.Lfunc_begin2:
	.loc	0 5 0 is_stmt 1                 // ../test.cpp:5:0
	.cfi_startproc
// %bb.0:
	sub	sp, sp, #32
	.cfi_def_cfa_offset 32
	stp	x29, x30, [sp, #16]             // 16-byte Folded Spill
	add	x29, sp, #16
	.cfi_def_cfa w29, 16
	.cfi_offset w30, -8
	.cfi_offset w29, -16
	str	x0, [sp, #8]
.Ltmp5:
	.loc	0 6 3 prologue_end              // ../test.cpp:6:3
	adrp	x0, .L.str
	add	x0, x0, :lo12:.L.str
	bl	printf
	.cfi_def_cfa wsp, 32
	.loc	0 7 2 epilogue_begin            // ../test.cpp:7:2
	ldp	x29, x30, [sp, #16]             // 16-byte Folded Reload
	add	sp, sp, #32
	.cfi_def_cfa_offset 0
	.cfi_restore w30
	.cfi_restore w29
	ret
.Ltmp6:
.Lfunc_end2:
	.size	_ZN12FileDownload5checkEv, .Lfunc_end2-_ZN12FileDownload5checkEv
	.cfi_endproc
                                        // -- End function
	.section	.text._ZN12FileDownload4wgetEv,"axG",@progbits,_ZN12FileDownload4wgetEv,comdat
	.weak	_ZN12FileDownload4wgetEv        // -- Begin function _ZN12FileDownload4wgetEv
	.p2align	2
	.type	_ZN12FileDownload4wgetEv,@function
_ZN12FileDownload4wgetEv:               // @_ZN12FileDownload4wgetEv
.Lfunc_begin3:
	.loc	0 8 0                           // ../test.cpp:8:0
	.cfi_startproc
// %bb.0:
	sub	sp, sp, #32
	.cfi_def_cfa_offset 32
	stp	x29, x30, [sp, #16]             // 16-byte Folded Spill
	add	x29, sp, #16
	.cfi_def_cfa w29, 16
	.cfi_offset w30, -8
	.cfi_offset w29, -16
	str	x0, [sp, #8]
.Ltmp7:
	.loc	0 9 3 prologue_end              // ../test.cpp:9:3
	adrp	x0, .L.str.1
	add	x0, x0, :lo12:.L.str.1
	bl	printf
	.cfi_def_cfa wsp, 32
	.loc	0 10 2 epilogue_begin           // ../test.cpp:10:2
	ldp	x29, x30, [sp, #16]             // 16-byte Folded Reload
	add	sp, sp, #32
	.cfi_def_cfa_offset 0
	.cfi_restore w30
	.cfi_restore w29
	ret
.Ltmp8:
.Lfunc_end3:
	.size	_ZN12FileDownload4wgetEv, .Lfunc_end3-_ZN12FileDownload4wgetEv
	.cfi_endproc
                                        // -- End function
	.type	_ZTV12FileDownload,@object      // @_ZTV12FileDownload
	.section	.data.rel.ro._ZTV12FileDownload,"aGw",@progbits,_ZTV12FileDownload,comdat
	.weak	_ZTV12FileDownload
	.p2align	3, 0x0
_ZTV12FileDownload:
	.xword	0
	.xword	_ZTI12FileDownload
	.xword	_ZN12FileDownload5checkEv
	.xword	_ZN12FileDownload4wgetEv
	.size	_ZTV12FileDownload, 32

	.type	_ZTS12FileDownload,@object      // @_ZTS12FileDownload
	.section	.rodata._ZTS12FileDownload,"aG",@progbits,_ZTS12FileDownload,comdat
	.weak	_ZTS12FileDownload
_ZTS12FileDownload:
	.asciz	"12FileDownload"
	.size	_ZTS12FileDownload, 15

	.type	_ZTI12FileDownload,@object      // @_ZTI12FileDownload
	.section	.data.rel.ro._ZTI12FileDownload,"aGw",@progbits,_ZTI12FileDownload,comdat
	.weak	_ZTI12FileDownload
	.p2align	3, 0x0
_ZTI12FileDownload:
	.xword	_ZTVN10__cxxabiv117__class_type_infoE+16
	.xword	_ZTS12FileDownload
	.size	_ZTI12FileDownload, 16

	.type	.L.str,@object                  // @.str
	.section	.rodata.str1.1,"aMS",@progbits,1
.L.str:
	.asciz	"virtual check\n"
	.size	.L.str, 15

	.type	.L.str.1,@object                // @.str.1
.L.str.1:
	.asciz	"virtual wget\n"
	.size	.L.str.1, 14

	.file	1 "<stdin>"
	.section	".note.GNU-stack","",@progbits
	.addrsig
	.addrsig_sym printf
	.addrsig_sym _ZTVN10__cxxabiv117__class_type_infoE
	.addrsig_sym _ZTS12FileDownload
	.addrsig_sym _ZTI12FileDownload